; Function Attrs: nounwind uwtable
define void @Java_com_sun_media_sound_DirectAudioDevice_nStop(ptr nocapture noundef readnone %0, ptr nocapture noundef readnone %1, i64 noundef %2, i8 noundef zeroext %3) local_unnamed_addr #2 {
  %.not = icmp eq i64 %2, 0
  br i1 %.not, label %11, label %5

5:                                                ; preds = %4
  %6 = inttoptr i64 %2 to ptr
  %7 = load ptr, ptr %6, align 8
  %.not5 = icmp eq ptr %7, null
  br i1 %.not5, label %11, label %8

8:                                                ; preds = %5
  %9 = zext i8 %3 to i32
  %10 = tail call i32 @DAUDIO_Stop(ptr noundef nonnull %7, i32 noundef %9) #7
  br label %11

11:                                               ; preds = %8, %5, %4
  ret void
}